target datalayout = "e-m:e-p270:32:32-p271:32:32-p272:64:64-i64:64-i128:128-f80:128-n8:16:32:64-S128"
target triple = "x86_64-pc-linux-gnu"

%struct.AVFilterLink = type { ptr, ptr, ptr, ptr, i32, i32, i32, i32, %struct.AVRational, i32, i32, i32, %struct.AVChannelLayout, %struct.AVRational, ptr, i32, %struct.AVFilterFormatsConfig, %struct.AVFilterFormatsConfig }
%struct.AVChannelLayout = type { i32, i32, %union.anon, ptr }
%union.anon = type { i64 }
%struct.AVRational = type { i32, i32 }
%struct.AVFilterFormatsConfig = type { ptr, ptr, ptr, ptr, ptr }
%struct.AVFilterChannelLayouts = type { ptr, i32, i8, i8, i32, ptr }
%struct.AVFilterContext = type { ptr, ptr, ptr, ptr, ptr, i32, ptr, ptr, i32, ptr, ptr, i32, i32, ptr, ptr, ptr, ptr, i32, ptr, i32, i32 }

; Function Attrs: nounwind uwtable
define i32 @ff_channel_layouts_ref(ptr noundef %0, ptr noundef %1) #0 {
  %3 = alloca i32, align 4
  %4 = alloca ptr, align 8
  %5 = alloca ptr, align 8
  %6 = alloca ptr, align 8
  %7 = alloca i32, align 4
  store ptr %0, ptr %4, align 8, !tbaa !38
  store ptr %1, ptr %5, align 8, !tbaa !52
  call void @llvm.lifetime.start.p0(i64 8, ptr %6) #7
  %8 = load ptr, ptr %4, align 8, !tbaa !38
  %9 = icmp ne ptr %8, null
  br i1 %9, label %11, label %10

10:                                               ; preds = %2
  store i32 -12, ptr %3, align 4
  store i32 1, ptr %7, align 4
  br label %40

11:                                               ; preds = %2
  %12 = load ptr, ptr %4, align 8, !tbaa !38
  %13 = getelementptr inbounds nuw %struct.AVFilterChannelLayouts, ptr %12, i32 0, i32 5
  %14 = load ptr, ptr %13, align 8, !tbaa !55
  %15 = load ptr, ptr %4, align 8, !tbaa !38
  %16 = getelementptr inbounds nuw %struct.AVFilterChannelLayouts, ptr %15, i32 0, i32 4
  %17 = load i32, ptr %16, align 8, !tbaa !54
  %18 = add i32 %17, 1
  %19 = zext i32 %18 to i64
  %20 = call ptr @av_realloc_array(ptr noundef %14, i64 noundef 8, i64 noundef %19)
  store ptr %20, ptr %6, align 8, !tbaa !71
  %21 = load ptr, ptr %6, align 8, !tbaa !71
  %22 = icmp ne ptr %21, null
  br i1 %22, label %24, label %23

23:                                               ; preds = %11
  call void @ff_channel_layouts_unref(ptr noundef %4)
  store i32 -12, ptr %3, align 4
  store i32 1, ptr %7, align 4
  br label %40

24:                                               ; preds = %11
  %25 = load ptr, ptr %6, align 8, !tbaa !71
  %26 = load ptr, ptr %4, align 8, !tbaa !38
  %27 = getelementptr inbounds nuw %struct.AVFilterChannelLayouts, ptr %26, i32 0, i32 5
  store ptr %25, ptr %27, align 8, !tbaa !55
  %28 = load ptr, ptr %5, align 8, !tbaa !52
  %29 = load ptr, ptr %4, align 8, !tbaa !38
  %30 = getelementptr inbounds nuw %struct.AVFilterChannelLayouts, ptr %29, i32 0, i32 5
  %31 = load ptr, ptr %30, align 8, !tbaa !55
  %32 = load ptr, ptr %4, align 8, !tbaa !38
  %33 = getelementptr inbounds nuw %struct.AVFilterChannelLayouts, ptr %32, i32 0, i32 4
  %34 = load i32, ptr %33, align 8, !tbaa !54
  %35 = add i32 %34, 1
  store i32 %35, ptr %33, align 8, !tbaa !54
  %36 = zext i32 %34 to i64
  %37 = getelementptr inbounds nuw ptr, ptr %31, i64 %36
  store ptr %28, ptr %37, align 8, !tbaa !52
  %38 = load ptr, ptr %4, align 8, !tbaa !38
  %39 = load ptr, ptr %5, align 8, !tbaa !52
  store ptr %38, ptr %39, align 8, !tbaa !38
  store i32 0, ptr %3, align 4
  store i32 1, ptr %7, align 4
  br label %40

40:                                               ; preds = %24, %23, %10
  call void @llvm.lifetime.end.p0(i64 8, ptr %6) #7
  %41 = load i32, ptr %3, align 4
  ret i32 %41
}

; Function Attrs: nounwind uwtable
define i32 @ff_set_common_channel_layouts(ptr noundef %0, ptr noundef %1) #0 {
  %3 = alloca i32, align 4
  %4 = alloca ptr, align 8
  %5 = alloca ptr, align 8
  %6 = alloca i32, align 4
  %7 = alloca i32, align 4
  %8 = alloca ptr, align 8
  %9 = alloca i32, align 4
  %10 = alloca ptr, align 8
  %11 = alloca i32, align 4
  store ptr %0, ptr %4, align 8, !tbaa !74
  store ptr %1, ptr %5, align 8, !tbaa !38
  call void @llvm.lifetime.start.p0(i64 4, ptr %6) #7
  %12 = load ptr, ptr %5, align 8, !tbaa !38
  %13 = icmp ne ptr %12, null
  br i1 %13, label %15, label %14

14:                                               ; preds = %2
  store i32 -12, ptr %3, align 4
  store i32 1, ptr %7, align 4
  br label %132

15:                                               ; preds = %2
  store i32 0, ptr %6, align 4, !tbaa !21
  br label %16

16:                                               ; preds = %67, %15
  %17 = load i32, ptr %6, align 4, !tbaa !21
  %18 = load ptr, ptr %4, align 8, !tbaa !74
  %19 = getelementptr inbounds nuw %struct.AVFilterContext, ptr %18, i32 0, i32 5
  %20 = load i32, ptr %19, align 8, !tbaa !75
  %21 = icmp ult i32 %17, %20
  br i1 %21, label %22, label %70

22:                                               ; preds = %16
  call void @llvm.lifetime.start.p0(i64 8, ptr %8) #7
  %23 = load ptr, ptr %4, align 8, !tbaa !74
  %24 = getelementptr inbounds nuw %struct.AVFilterContext, ptr %23, i32 0, i32 4
  %25 = load ptr, ptr %24, align 8, !tbaa !84
  %26 = load i32, ptr %6, align 4, !tbaa !21
  %27 = sext i32 %26 to i64
  %28 = getelementptr inbounds ptr, ptr %25, i64 %27
  %29 = load ptr, ptr %28, align 8, !tbaa !4
  store ptr %29, ptr %8, align 8, !tbaa !4
  %30 = load ptr, ptr %8, align 8, !tbaa !4
  %31 = icmp ne ptr %30, null
  br i1 %31, label %32, label %63

32:                                               ; preds = %22
  %33 = load ptr, ptr %8, align 8, !tbaa !4
  %34 = getelementptr inbounds nuw %struct.AVFilterLink, ptr %33, i32 0, i32 17
  %35 = getelementptr inbounds nuw %struct.AVFilterFormatsConfig, ptr %34, i32 0, i32 2
  %36 = load ptr, ptr %35, align 8, !tbaa !85
  %37 = icmp ne ptr %36, null
  br i1 %37, label %63, label %38

38:                                               ; preds = %32
  %39 = load ptr, ptr %8, align 8, !tbaa !4
  %40 = getelementptr inbounds nuw %struct.AVFilterLink, ptr %39, i32 0, i32 4
  %41 = load i32, ptr %40, align 8, !tbaa !9
  %42 = icmp eq i32 %41, 1
  br i1 %42, label %43, label %63

43:                                               ; preds = %38
  call void @llvm.lifetime.start.p0(i64 4, ptr %9) #7
  %44 = load ptr, ptr %5, align 8, !tbaa !38
  %45 = load ptr, ptr %4, align 8, !tbaa !74
  %46 = getelementptr inbounds nuw %struct.AVFilterContext, ptr %45, i32 0, i32 4
  %47 = load ptr, ptr %46, align 8, !tbaa !84
  %48 = load i32, ptr %6, align 4, !tbaa !21
  %49 = sext i32 %48 to i64
  %50 = getelementptr inbounds ptr, ptr %47, i64 %49
  %51 = load ptr, ptr %50, align 8, !tbaa !4
  %52 = getelementptr inbounds nuw %struct.AVFilterLink, ptr %51, i32 0, i32 17
  %53 = getelementptr inbounds nuw %struct.AVFilterFormatsConfig, ptr %52, i32 0, i32 2
  %54 = call i32 @ff_channel_layouts_ref(ptr noundef %44, ptr noundef %53)
  store i32 %54, ptr %9, align 4, !tbaa !21
  %55 = load i32, ptr %9, align 4, !tbaa !21
  %56 = icmp slt i32 %55, 0
  br i1 %56, label %57, label %59

57:                                               ; preds = %43
  %58 = load i32, ptr %9, align 4, !tbaa !21
  store i32 %58, ptr %3, align 4
  store i32 1, ptr %7, align 4
  br label %60

59:                                               ; preds = %43
  store i32 0, ptr %7, align 4
  br label %60

60:                                               ; preds = %59, %57
  call void @llvm.lifetime.end.p0(i64 4, ptr %9) #7
  %61 = load i32, ptr %7, align 4
  switch i32 %61, label %64 [
    i32 0, label %62
  ]

62:                                               ; preds = %60
  br label %63

63:                                               ; preds = %62, %38, %32, %22
  store i32 0, ptr %7, align 4
  br label %64

64:                                               ; preds = %63, %60
  call void @llvm.lifetime.end.p0(i64 8, ptr %8) #7
  %65 = load i32, ptr %7, align 4
  switch i32 %65, label %132 [
    i32 0, label %66
  ]

66:                                               ; preds = %64
  br label %67

67:                                               ; preds = %66
  %68 = load i32, ptr %6, align 4, !tbaa !21
  %69 = add nsw i32 %68, 1
  store i32 %69, ptr %6, align 4, !tbaa !21
  br label %16, !llvm.loop !86

70:                                               ; preds = %16
  store i32 0, ptr %6, align 4, !tbaa !21
  br label %71

71:                                               ; preds = %122, %70
  %72 = load i32, ptr %6, align 4, !tbaa !21
  %73 = load ptr, ptr %4, align 8, !tbaa !74
  %74 = getelementptr inbounds nuw %struct.AVFilterContext, ptr %73, i32 0, i32 8
  %75 = load i32, ptr %74, align 8, !tbaa !87
  %76 = icmp ult i32 %72, %75
  br i1 %76, label %77, label %125

77:                                               ; preds = %71
  call void @llvm.lifetime.start.p0(i64 8, ptr %10) #7
  %78 = load ptr, ptr %4, align 8, !tbaa !74
  %79 = getelementptr inbounds nuw %struct.AVFilterContext, ptr %78, i32 0, i32 7
  %80 = load ptr, ptr %79, align 8, !tbaa !88
  %81 = load i32, ptr %6, align 4, !tbaa !21
  %82 = sext i32 %81 to i64
  %83 = getelementptr inbounds ptr, ptr %80, i64 %82
  %84 = load ptr, ptr %83, align 8, !tbaa !4
  store ptr %84, ptr %10, align 8, !tbaa !4
  %85 = load ptr, ptr %10, align 8, !tbaa !4
  %86 = icmp ne ptr %85, null
  br i1 %86, label %87, label %118

87:                                               ; preds = %77
  %88 = load ptr, ptr %10, align 8, !tbaa !4
  %89 = getelementptr inbounds nuw %struct.AVFilterLink, ptr %88, i32 0, i32 16
  %90 = getelementptr inbounds nuw %struct.AVFilterFormatsConfig, ptr %89, i32 0, i32 2
  %91 = load ptr, ptr %90, align 8, !tbaa !89
  %92 = icmp ne ptr %91, null
  br i1 %92, label %118, label %93

93:                                               ; preds = %87
  %94 = load ptr, ptr %10, align 8, !tbaa !4
  %95 = getelementptr inbounds nuw %struct.AVFilterLink, ptr %94, i32 0, i32 4
  %96 = load i32, ptr %95, align 8, !tbaa !9
  %97 = icmp eq i32 %96, 1
  br i1 %97, label %98, label %118

98:                                               ; preds = %93
  call void @llvm.lifetime.start.p0(i64 4, ptr %11) #7
  %99 = load ptr, ptr %5, align 8, !tbaa !38
  %100 = load ptr, ptr %4, align 8, !tbaa !74
  %101 = getelementptr inbounds nuw %struct.AVFilterContext, ptr %100, i32 0, i32 7
  %102 = load ptr, ptr %101, align 8, !tbaa !88
  %103 = load i32, ptr %6, align 4, !tbaa !21
  %104 = sext i32 %103 to i64
  %105 = getelementptr inbounds ptr, ptr %102, i64 %104
  %106 = load ptr, ptr %105, align 8, !tbaa !4
  %107 = getelementptr inbounds nuw %struct.AVFilterLink, ptr %106, i32 0, i32 16
  %108 = getelementptr inbounds nuw %struct.AVFilterFormatsConfig, ptr %107, i32 0, i32 2
  %109 = call i32 @ff_channel_layouts_ref(ptr noundef %99, ptr noundef %108)
  store i32 %109, ptr %11, align 4, !tbaa !21
  %110 = load i32, ptr %11, align 4, !tbaa !21
  %111 = icmp slt i32 %110, 0
  br i1 %111, label %112, label %114

112:                                              ; preds = %98
  %113 = load i32, ptr %11, align 4, !tbaa !21
  store i32 %113, ptr %3, align 4
  store i32 1, ptr %7, align 4
  br label %115

114:                                              ; preds = %98
  store i32 0, ptr %7, align 4
  br label %115

115:                                              ; preds = %114, %112
  call void @llvm.lifetime.end.p0(i64 4, ptr %11) #7
  %116 = load i32, ptr %7, align 4
  switch i32 %116, label %119 [
    i32 0, label %117
  ]

117:                                              ; preds = %115
  br label %118

118:                                              ; preds = %117, %93, %87, %77
  store i32 0, ptr %7, align 4
  br label %119

119:                                              ; preds = %118, %115
  call void @llvm.lifetime.end.p0(i64 8, ptr %10) #7
  %120 = load i32, ptr %7, align 4
  switch i32 %120, label %132 [
    i32 0, label %121
  ]

121:                                              ; preds = %119
  br label %122

122:                                              ; preds = %121
  %123 = load i32, ptr %6, align 4, !tbaa !21
  %124 = add nsw i32 %123, 1
  store i32 %124, ptr %6, align 4, !tbaa !21
  br label %71, !llvm.loop !90

125:                                              ; preds = %71
  %126 = load ptr, ptr %5, align 8, !tbaa !38
  %127 = getelementptr inbounds nuw %struct.AVFilterChannelLayouts, ptr %126, i32 0, i32 4
  %128 = load i32, ptr %127, align 8, !tbaa !54
  %129 = icmp ne i32 %128, 0
  br i1 %129, label %131, label %130

130:                                              ; preds = %125
  call void @ff_channel_layouts_unref(ptr noundef %5)
  br label %131

131:                                              ; preds = %130, %125
  store i32 0, ptr %3, align 4
  store i32 1, ptr %7, align 4
  br label %132

132:                                              ; preds = %131, %119, %64, %14
  call void @llvm.lifetime.end.p0(i64 4, ptr %6) #7
  %133 = load i32, ptr %3, align 4
  ret i32 %133
}