; Function Attrs: nounwind uwtable
define range(i32 -12, 1) i32 @ff_set_common_channel_layouts(ptr noundef readonly captures(none) %0, ptr noundef %1) local_unnamed_addr #3 {
  %3 = alloca ptr, align 8
  %4 = alloca ptr, align 8
  %5 = alloca ptr, align 8
  store ptr %1, ptr %5, align 8, !tbaa !33
  %.not = icmp eq ptr %1, null
  br i1 %.not, label %71, label %.preheader65

.preheader65:                                     ; preds = %2
  %6 = getelementptr inbounds nuw i8, ptr %0, i64 40
  %7 = load i32, ptr %6, align 8, !tbaa !66
  %.not69 = icmp eq i32 %7, 0
  br i1 %.not69, label %.preheader, label %.lr.ph

.lr.ph:                                           ; preds = %.preheader65
  %8 = getelementptr inbounds nuw i8, ptr %0, i64 32
  %9 = getelementptr inbounds nuw i8, ptr %1, i64 24
  %10 = getelementptr inbounds nuw i8, ptr %1, i64 16
  br label %16

.preheader:                                       ; preds = %.thread, %.preheader65
  %11 = getelementptr inbounds nuw i8, ptr %0, i64 64
  %12 = load i32, ptr %11, align 8, !tbaa !75
  %.not70 = icmp eq i32 %12, 0
  br i1 %.not70, label %._crit_edge, label %.lr.ph68

.lr.ph68:                                         ; preds = %.preheader
  %13 = getelementptr inbounds nuw i8, ptr %0, i64 56
  %14 = getelementptr inbounds nuw i8, ptr %1, i64 24
  %15 = getelementptr inbounds nuw i8, ptr %1, i64 16
  br label %42

16:                                               ; preds = %.lr.ph, %.thread
  %17 = phi i32 [ %7, %.lr.ph ], [ %39, %.thread ]
  %indvars.iv = phi i64 [ 0, %.lr.ph ], [ %indvars.iv.next, %.thread ]
  %18 = load ptr, ptr %8, align 8, !tbaa !76
  %19 = getelementptr inbounds nuw ptr, ptr %18, i64 %indvars.iv
  %20 = load ptr, ptr %19, align 8, !tbaa !77
  %.not44 = icmp eq ptr %20, null
  br i1 %.not44, label %.thread, label %21

21:                                               ; preds = %16
  %22 = getelementptr inbounds nuw i8, ptr %20, i64 176
  %23 = load ptr, ptr %22, align 8, !tbaa !79
  %.not45 = icmp eq ptr %23, null
  br i1 %.not45, label %24, label %.thread

24:                                               ; preds = %21
  %25 = getelementptr inbounds nuw i8, ptr %20, i64 32
  %26 = load i32, ptr %25, align 8, !tbaa !4
  %27 = icmp eq i32 %26, 1
  br i1 %27, label %28, label %.thread

28:                                               ; preds = %24
  call void @llvm.lifetime.start.p0(i64 8, ptr nonnull %4)
  store ptr %1, ptr %4, align 8, !tbaa !33
  %29 = load ptr, ptr %9, align 8, !tbaa !47
  %30 = load i32, ptr %10, align 8, !tbaa !46
  %31 = add i32 %30, 1
  %32 = zext i32 %31 to i64
  %33 = tail call ptr @av_realloc_array(ptr noundef %29, i64 noundef 8, i64 noundef %32) #10
  %.not6.i = icmp eq ptr %33, null
  br i1 %.not6.i, label %38, label %.thread54

.thread54:                                        ; preds = %28
  store ptr %33, ptr %9, align 8, !tbaa !47
  %34 = load i32, ptr %10, align 8, !tbaa !46
  %35 = add i32 %34, 1
  store i32 %35, ptr %10, align 8, !tbaa !46
  %36 = zext i32 %34 to i64
  %37 = getelementptr inbounds nuw ptr, ptr %33, i64 %36
  store ptr %22, ptr %37, align 8, !tbaa !48
  store ptr %1, ptr %22, align 8, !tbaa !33
  call void @llvm.lifetime.end.p0(i64 8, ptr nonnull %4)
  %.pre = load i32, ptr %6, align 8, !tbaa !66
  br label %.thread

38:                                               ; preds = %28
  call void @ff_channel_layouts_unref(ptr noundef nonnull %4)
  call void @llvm.lifetime.end.p0(i64 8, ptr nonnull %4)
  br label %71

.thread:                                          ; preds = %16, %21, %24, %.thread54
  %39 = phi i32 [ %17, %16 ], [ %17, %21 ], [ %17, %24 ], [ %.pre, %.thread54 ]
  %indvars.iv.next = add nuw nsw i64 %indvars.iv, 1
  %40 = zext i32 %39 to i64
  %41 = icmp samesign ult i64 %indvars.iv.next, %40
  br i1 %41, label %16, label %.preheader, !llvm.loop !80

42:                                               ; preds = %.lr.ph68, %.thread58
  %43 = phi i32 [ %12, %.lr.ph68 ], [ %65, %.thread58 ]
  %indvars.iv72 = phi i64 [ 0, %.lr.ph68 ], [ %indvars.iv.next73, %.thread58 ]
  %44 = load ptr, ptr %13, align 8, !tbaa !81
  %45 = getelementptr inbounds nuw ptr, ptr %44, i64 %indvars.iv72
  %46 = load ptr, ptr %45, align 8, !tbaa !77
  %.not42 = icmp eq ptr %46, null
  br i1 %.not42, label %.thread58, label %47

47:                                               ; preds = %42
  %48 = getelementptr inbounds nuw i8, ptr %46, i64 136
  %49 = load ptr, ptr %48, align 8, !tbaa !82
  %.not43 = icmp eq ptr %49, null
  br i1 %.not43, label %50, label %.thread58

50:                                               ; preds = %47
  %51 = getelementptr inbounds nuw i8, ptr %46, i64 32
  %52 = load i32, ptr %51, align 8, !tbaa !4
  %53 = icmp eq i32 %52, 1
  br i1 %53, label %54, label %.thread58

54:                                               ; preds = %50
  call void @llvm.lifetime.start.p0(i64 8, ptr nonnull %3)
  store ptr %1, ptr %3, align 8, !tbaa !33
  %55 = load ptr, ptr %14, align 8, !tbaa !47
  %56 = load i32, ptr %15, align 8, !tbaa !46
  %57 = add i32 %56, 1
  %58 = zext i32 %57 to i64
  %59 = tail call ptr @av_realloc_array(ptr noundef %55, i64 noundef 8, i64 noundef %58) #10
  %.not6.i48 = icmp eq ptr %59, null
  br i1 %.not6.i48, label %64, label %.thread62

.thread62:                                        ; preds = %54
  store ptr %59, ptr %14, align 8, !tbaa !47
  %60 = load i32, ptr %15, align 8, !tbaa !46
  %61 = add i32 %60, 1
  store i32 %61, ptr %15, align 8, !tbaa !46
  %62 = zext i32 %60 to i64
  %63 = getelementptr inbounds nuw ptr, ptr %59, i64 %62
  store ptr %48, ptr %63, align 8, !tbaa !48
  store ptr %1, ptr %48, align 8, !tbaa !33
  call void @llvm.lifetime.end.p0(i64 8, ptr nonnull %3)
  %.pre75 = load i32, ptr %11, align 8, !tbaa !75
  br label %.thread58

64:                                               ; preds = %54
  call void @ff_channel_layouts_unref(ptr noundef nonnull %3)
  call void @llvm.lifetime.end.p0(i64 8, ptr nonnull %3)
  br label %71

.thread58:                                        ; preds = %42, %47, %50, %.thread62
  %65 = phi i32 [ %43, %42 ], [ %43, %47 ], [ %43, %50 ], [ %.pre75, %.thread62 ]
  %indvars.iv.next73 = add nuw nsw i64 %indvars.iv72, 1
  %66 = zext i32 %65 to i64
  %67 = icmp samesign ult i64 %indvars.iv.next73, %66
  br i1 %67, label %42, label %._crit_edge, !llvm.loop !83

._crit_edge:                                      ; preds = %.thread58, %.preheader
  %68 = getelementptr inbounds nuw i8, ptr %1, i64 16
  %69 = load i32, ptr %68, align 8, !tbaa !46
  %.not41 = icmp eq i32 %69, 0
  br i1 %.not41, label %70, label %71

70:                                               ; preds = %._crit_edge
  call void @ff_channel_layouts_unref(ptr noundef nonnull %5)
  br label %71

71:                                               ; preds = %64, %38, %._crit_edge, %70, %2
  %.0 = phi i32 [ -12, %38 ], [ -12, %64 ], [ -12, %2 ], [ 0, %70 ], [ 0, %._crit_edge ]
  ret i32 %.0
}